Certificate:
    Data:
        Version: 3 (0x2)
        Serial Number: 1 (0x1)
        Signature Algorithm: sha256WithRSAEncryption
        Issuer: O=root, CN=root
        Validity
            Not Before: Dec 27 06:56:38 2019 GMT
            Not After : Dec  3 06:56:38 2119 GMT
        Subject: O=localhost
        Subject Public Key Info:
            Public Key Algorithm: rsaEncryption
                RSA Public-Key: (2048 bit)
                Modulus:
                    00:bc:cd:63:b1:6d:b3:0f:9b:0b:af:8d:a8:b4:68:
                    bb:43:6b:a8:15:09:48:f7:02:69:93:b1:76:99:54:
                    4b:0f:c1:1c:63:38:0b:13:eb:94:49:6e:a4:1b:54:
                    f2:be:75:45:de:e9:bc:be:74:d3:73:7a:d6:ed:2e:
                    51:3d:93:99:b6:eb:c5:59:03:29:3c:40:08:fd:ac:
                    91:78:90:be:5b:06:30:18:08:58:0c:4c:eb:d8:44:
                    55:3a:2a:c1:bb:5f:bd:62:f9:ca:19:5d:4b:4f:62:
                    6a:eb:8b:98:f5:9f:54:cf:f9:f2:1f:6e:dd:22:2d:
                    fb:fd:27:fe:cb:f0:c9:8a:86:2e:40:f5:81:a3:2d:
                    dc:b3:bc:8a:fe:b7:ea:d1:19:7e:60:b4:71:a1:9e:
                    a6:b7:80:24:36:ad:f7:6c:d5:b2:eb:08:cf:25:1e:
                    b3:c7:1e:48:ef:8a:33:42:f0:5f:b4:2e:2c:28:a7:
                    61:71:7d:5f:a8:9d:65:7a:0d:2e:2d:a1:63:ed:a8:
                    65:f1:12:f9:d5:87:10:69:88:50:6c:8c:5f:02:cc:
                    3c:34:2f:b2:53:75:7a:86:37:44:14:d1:f7:d5:18:
                    d2:76:55:3a:b0:c9:0c:dd:91:0f:18:0d:96:9c:bb:
                    a6:84:9f:14:4c:32:bc:9f:ec:3e:e7:3b:c8:d6:b7:
                    7e:6f
                Exponent: 65537 (0x10001)
        X509v3 extensions:
            X509v3 Subject Key Identifier: 
                C0:9B:A5:2C:A4:4B:80:6A:4F:BE:90:81:85:D9:E7:13:5A:01:E0:59
            X509v3 Authority Key Identifier: 
                keyid:1C:99:0B:37:13:32:74:70:3B:71:8F:B0:53:55:5A:49:22:2A:FD:C2

            X509v3 Basic Constraints: 
                CA:FALSE
            X509v3 Key Usage: 
                Digital Signature, Non Repudiation, Key Encipherment
            X509v3 Extended Key Usage: 
                TLS Web Server Authentication
            X509v3 Subject Alternative Name: 
                DNS:example.com, DNS:*.example.com, DNS:example.test, DNS:localhost, IP Address:127.0.0.1, IP Address:0:0:0:0:0:0:0:1
    Signature Algorithm: sha256WithRSAEncryption
         b7:24:33:9b:ef:dc:cf:65:00:22:bc:ba:5a:f0:db:24:83:e6:
         0f:01:dd:06:42:61:78:f4:70:1c:c4:52:fe:f0:c8:dd:70:19:
         a0:dd:08:e4:01:ff:76:b1:f7:d3:14:d2:04:7d:39:67:2b:65:
         ec:67:0b:45:46:e8:28:2e:44:40:1e:38:53:a0:c0:9f:9b:48:
         8a:ad:2b:32:be:22:34:1f:22:5d:48:3e:8a:c3:b6:95:2f:6e:
         3b:64:3a:cb:98:12:e1:b3:b8:f3:8f:30:9e:de:d2:b5:e4:dd:
         01:9d:ad:2b:d4:d8:30:39:16:e2:e4:44:37:a4:86:75:de:88:
         07:28:04:f6:d3:9d:30:4e:7c:05:29:d8:5f:6d:73:c0:88:6a:
         e5:5a:76:46:f0:06:b7:43:09:3b:2f:a3:a3:94:8f:32:98:5d:
         f9:a4:bf:fb:77:0a:af:d2:ca:0d:25:3e:ae:00:3b:66:f2:01:
         bb:30:1c:8b:1d:87:b6:17:69:9a:c0:da:e4:96:e5:1f:f5:03:
         e2:e4:7c:00:fd:b9:b4:db:f8:a1:60:d2:ed:2d:df:a1:c8:67:
         f0:4c:1b:50:26:43:6a:33:61:ae:17:b8:e2:f0:91:b6:03:e0:
         53:cc:aa:5d:8d:51:a4:be:f0:1c:6b:5d:a1:95:92:9e:d3:7a:
         49:5d:f6:4b
-----BEGIN CERTIFICATE-----
MIIDeDCCAmCgAwIBAgIBATANBgkqhkiG9w0BAQsFADAeMQ0wCwYDVQQKDARyb290
MQ0wCwYDVQQDDARyb290MCAXDTE5MTIyNzA2NTYzOFoYDzIxMTkxMjAzMDY1NjM4
WjAUMRIwEAYDVQQKDAlsb2NhbGhvc3QwggEiMA0GCSqGSIb3DQEBAQUAA4IBDwAw
ggEKAoIBAQC8zWOxbbMPmwuvjai0aLtDa6gVCUj3AmmTsXaZVEsPwRxjOAsT65RJ
bqQbVPK+dUXe6by+dNNzetbtLlE9k5m268VZAyk8QAj9rJF4kL5bBjAYCFgMTOvY
RFU6KsG7X71i+coZXUtPYmrri5j1n1TP+fIfbt0iLfv9J/7L8MmKhi5A9YGjLdyz
vIr+t+rRGX5gtHGhnqa3gCQ2rfds1bLrCM8lHrPHHkjvijNC8F+0Liwop2FxfV+o
nWV6DS4toWPtqGXxEvnVhxBpiFBsjF8CzDw0L7JTdXqGN0QU0ffVGNJ2VTqwyQzd
kQ8YDZacu6aEnxRMMryf7D7nO8jWt35vAgMBAAGjgcgwgcUwHQYDVR0OBBYEFMCb
pSykS4BqT76QgYXZ5xNaAeBZMB8GA1UdIwQYMBaAFByZCzcTMnRwO3GPsFNVWkki
Kv3CMAkGA1UdEwQCMAAwCwYDVR0PBAQDAgXgMBMGA1UdJQQMMAoGCCsGAQUFBwMB
MFYGA1UdEQRPME2CC2V4YW1wbGUuY29tgg0qLmV4YW1wbGUuY29tggxleGFtcGxl
LnRlc3SCCWxvY2FsaG9zdIcEfwAAAYcQAAAAAAAAAAAAAAAAAAAAATANBgkqhkiG
9w0BAQsFAAOCAQEAtyQzm+/cz2UAIry6WvDbJIPmDwHdBkJhePRwHMRS/vDI3XAZ
oN0I5AH/drH30xTSBH05Zytl7GcLRUboKC5EQB44U6DAn5tIiq0rMr4iNB8iXUg+
isO2lS9uO2Q6y5gS4bO4848wnt7SteTdAZ2tK9TYMDkW4uREN6SGdd6IBygE9tOd
ME58BSnYX21zwIhq5Vp2RvAGt0MJOy+jo5SPMphd+aS/+3cKr9LKDSU+rgA7ZvIB
uzAcix2HthdpmsDa5JblH/UD4uR8AP25tNv4oWDS7S3fochn8EwbUCZDajNhrhe4
4vCRtgPgU8yqXY1RpL7wHGtdoZWSntN6SV32Sw==
-----END CERTIFICATE-----
